target datalayout = "e-m:e-p270:32:32-p271:32:32-p272:64:64-i64:64-i128:128-f80:128-n8:16:32:64-S128"
target triple = "x86_64-pc-linux-gnu"

; Function Attrs: cold nounwind optsize uwtable
define internal i32 @ff_tx_fft_factor_init_double_c(ptr noundef %0, ptr noundef %1, i64 noundef %2, ptr noundef %3, i32 noundef %4, i32 noundef %5, ptr noundef %6) #0 {
  %8 = alloca ptr, align 8
  %9 = alloca ptr, align 8
  %10 = alloca i64, align 8
  %11 = alloca ptr, align 8
  %12 = alloca i32, align 4
  %13 = alloca i32, align 4
  %14 = alloca ptr, align 8
  %15 = alloca i32, align 4
  store ptr %0, ptr %8, align 8, !tbaa !17
  store ptr %1, ptr %9, align 8, !tbaa !60
  store i64 %2, ptr %10, align 8, !tbaa !30
  store ptr %3, ptr %11, align 8, !tbaa !61
  store i32 %4, ptr %12, align 4, !tbaa !4
  store i32 %5, ptr %13, align 4, !tbaa !4
  store ptr %6, ptr %14, align 8, !tbaa !8
  call void @llvm.lifetime.start.p0(i64 4, ptr %15) #10
  store i32 0, ptr %15, align 4, !tbaa !4
  %16 = load i32, ptr %12, align 4, !tbaa !4
  call void @ff_tx_init_tabs_double(i32 noundef %16) #12
  %17 = load i32, ptr %12, align 4, !tbaa !4
  %18 = icmp eq i32 %17, 15
  br i1 %18, label %19, label %23

19:                                               ; preds = %7
  %20 = load ptr, ptr %8, align 8, !tbaa !17
  %21 = load ptr, ptr %11, align 8, !tbaa !61
  %22 = call i32 @ff_tx_gen_pfa_input_map(ptr noundef %20, ptr noundef %21, i32 noundef 3, i32 noundef 5)
  store i32 %22, ptr %15, align 4, !tbaa !4
  br label %32

23:                                               ; preds = %7
  %24 = load i64, ptr %10, align 8, !tbaa !30
  %25 = and i64 %24, 2305843009213693952
  %26 = icmp ne i64 %25, 0
  br i1 %26, label %27, label %31

27:                                               ; preds = %23
  %28 = load ptr, ptr %8, align 8, !tbaa !17
  %29 = load ptr, ptr %11, align 8, !tbaa !61
  %30 = call i32 @ff_tx_gen_default_map(ptr noundef %28, ptr noundef %29)
  store i32 %30, ptr %15, align 4, !tbaa !4
  br label %31

31:                                               ; preds = %27, %23
  br label %32

32:                                               ; preds = %31, %19
  %33 = load i32, ptr %15, align 4, !tbaa !4
  call void @llvm.lifetime.end.p0(i64 4, ptr %15) #10
  ret i32 %33
}